target datalayout = "e-m:e-p270:32:32-p271:32:32-p272:64:64-i64:64-i128:128-f80:128-n8:16:32:64-S128"
target triple = "x86_64-pc-linux-gnu"

%struct.X509_VERIFY_PARAM_st = type { ptr, i64, i64, i64, i32, i32, i32, ptr, ptr }

; Function Attrs: nounwind uwtable
define hidden void @X509_VERIFY_PARAM_set_time(ptr noundef %0, i64 noundef %1) #0 {
  %3 = alloca ptr, align 8
  %4 = alloca i64, align 8
  store ptr %0, ptr %3, align 8, !tbaa !6
  store i64 %1, ptr %4, align 8, !tbaa !34
  %5 = load i64, ptr %4, align 8, !tbaa !34
  %6 = load ptr, ptr %3, align 8, !tbaa !6
  %7 = getelementptr inbounds nuw %struct.X509_VERIFY_PARAM_st, ptr %6, i32 0, i32 1
  store i64 %5, ptr %7, align 8, !tbaa !36
  %8 = load ptr, ptr %3, align 8, !tbaa !6
  %9 = getelementptr inbounds nuw %struct.X509_VERIFY_PARAM_st, ptr %8, i32 0, i32 3
  %10 = load i64, ptr %9, align 8, !tbaa !23
  %11 = or i64 %10, 2
  store i64 %11, ptr %9, align 8, !tbaa !23
  ret void
}