; Function Attrs: mustprogress nofree norecurse nosync nounwind willreturn memory(argmem: readwrite) uwtable
define hidden void @X509_VERIFY_PARAM_set_time(ptr noundef captures(none) initializes((8, 16)) %0, i64 noundef %1) local_unnamed_addr #7 {
  %3 = getelementptr inbounds nuw i8, ptr %0, i64 8
  store i64 %1, ptr %3, align 8, !tbaa !29
  %4 = getelementptr inbounds nuw i8, ptr %0, i64 24
  %5 = load i64, ptr %4, align 8, !tbaa !28
  %6 = or i64 %5, 2
  store i64 %6, ptr %4, align 8, !tbaa !28
  ret void
}